; ModuleID = '58/1001.c'
source_filename = "58/1001.c"
target datalayout = "e-m:e-p270:32:32-p271:32:32-p272:64:64-i64:64-f80:128-n8:16:32:64-S128"
target triple = "x86_64-pc-linux-gnu"

@.str = private unnamed_addr constant [3 x i8] c"%d\00", align 1
@.str.1 = private unnamed_addr constant [4 x i8] c"%d\0A\00", align 1

; Function Attrs: noinline nounwind uwtable
define dso_local i32 @main() #0 {
  %1 = alloca i32, align 4
  %2 = alloca i8*, align 8
  %3 = alloca i32, align 4
  %4 = alloca i32, align 4
  %5 = alloca i32, align 4
  %6 = alloca i32, align 4
  %7 = alloca i32, align 4
  %8 = alloca i32*, align 8
  %9 = alloca i8*, align 8
  %10 = alloca i64, align 8
  store i32 0, i32* %1, align 4
  %11 = call i32 (i8*, ...) @__isoc99_scanf(i8* getelementptr inbounds ([3 x i8], [3 x i8]* @.str, i64 0, i64 0), i32* %3)
  %12 = load i32, i32* %3, align 4
  %13 = zext i32 %12 to i64
  %14 = call i8* @llvm.stacksave()
  store i8* %14, i8** %9, align 8
  %15 = alloca i8*, i64 %13, align 16
  store i64 %13, i64* %10, align 8
  %16 = call noalias i8* @malloc(i64 81) #2
  store i8* %16, i8** %2, align 8
  %17 = load i8*, i8** %2, align 8
  %18 = call i32 (i8*, ...) bitcast (i32 (...)* @gets to i32 (i8*, ...)*)(i8* %17)
  %19 = load i8*, i8** %2, align 8
  %20 = getelementptr inbounds i8*, i8** %15, i64 0
  store i8* %19, i8** %20, align 16
  store i32 1, i32* %5, align 4
  br label %21

21:                                               ; preds = %38, %0
  %22 = load i32, i32* %5, align 4
  %23 = load i32, i32* %3, align 4
  %24 = add nsw i32 %23, 1
  %25 = icmp slt i32 %22, %24
  br i1 %25, label %26, label %41

26:                                               ; preds = %21
  %27 = call noalias i8* @malloc(i64 81) #2
  store i8* %27, i8** %2, align 8
  %28 = load i8*, i8** %2, align 8
  %29 = call i32 (i8*, ...) bitcast (i32 (...)* @gets to i32 (i8*, ...)*)(i8* %28)
  %30 = call noalias i8* @malloc(i64 81) #2
  %31 = load i32, i32* %5, align 4
  %32 = sext i32 %31 to i64
  %33 = getelementptr inbounds i8*, i8** %15, i64 %32
  store i8* %30, i8** %33, align 8
  %34 = load i8*, i8** %2, align 8
  %35 = load i32, i32* %5, align 4
  %36 = sext i32 %35 to i64
  %37 = getelementptr inbounds i8*, i8** %15, i64 %36
  store i8* %34, i8** %37, align 8
  br label %38

38:                                               ; preds = %26
  %39 = load i32, i32* %5, align 4
  %40 = add nsw i32 %39, 1
  store i32 %40, i32* %5, align 4
  br label %21

41:                                               ; preds = %21
  store i32 1, i32* %5, align 4
  br label %42

42:                                               ; preds = %120, %41
  %43 = load i32, i32* %5, align 4
  %44 = load i32, i32* %3, align 4
  %45 = add nsw i32 %44, 1
  %46 = icmp slt i32 %43, %45
  br i1 %46, label %47, label %123

47:                                               ; preds = %42
  %48 = load i32, i32* %5, align 4
  %49 = sext i32 %48 to i64
  %50 = getelementptr inbounds i8*, i8** %15, i64 %49
  %51 = load i8*, i8** %50, align 8
  %52 = call i64 @strlen(i8* %51) #5
  %53 = trunc i64 %52 to i32
  store i32 %53, i32* %4, align 4
  %54 = load i32, i32* %5, align 4
  %55 = sext i32 %54 to i64
  %56 = getelementptr inbounds i8*, i8** %15, i64 %55
  %57 = load i8*, i8** %56, align 8
  %58 = load i8, i8* %57, align 1
  %59 = sext i8 %58 to i32
  %60 = icmp eq i32 %59, 95
  br i1 %60, label %70, label %61

61:                                               ; preds = %47
  %62 = load i32, i32* %5, align 4
  %63 = sext i32 %62 to i64
  %64 = getelementptr inbounds i8*, i8** %15, i64 %63
  %65 = load i8*, i8** %64, align 8
  %66 = load i8, i8* %65, align 1
  %67 = sext i8 %66 to i32
  %68 = call i32 @isalpha(i32 %67) #5
  %69 = icmp ne i32 %68, 0
  br i1 %69, label %70, label %71

70:                                               ; preds = %61, %47
  store i32 1, i32* %6, align 4
  br label %72

71:                                               ; preds = %61
  store i32 0, i32* %6, align 4
  br label %72

72:                                               ; preds = %71, %70
  %73 = load i32, i32* %5, align 4
  %74 = sext i32 %73 to i64
  %75 = getelementptr inbounds i8*, i8** %15, i64 %74
  %76 = load i8*, i8** %75, align 8
  %77 = getelementptr inbounds i8, i8* %76, i32 1
  store i8* %77, i8** %75, align 8
  store i32 1, i32* %7, align 4
  br label %78

78:                                               ; preds = %114, %72
  %79 = load i32, i32* %7, align 4
  %80 = load i32, i32* %4, align 4
  %81 = icmp slt i32 %79, %80
  br i1 %81, label %82, label %117

82:                                               ; preds = %78
  %83 = load i32, i32* %5, align 4
  %84 = sext i32 %83 to i64
  %85 = getelementptr inbounds i8*, i8** %15, i64 %84
  %86 = load i8*, i8** %85, align 8
  %87 = load i8, i8* %86, align 1
  %88 = sext i8 %87 to i32
  %89 = call i32 @isalnum(i32 %88) #5
  %90 = icmp ne i32 %89, 0
  br i1 %90, label %91, label %97

91:                                               ; preds = %82
  %92 = load i32, i32* %5, align 4
  %93 = sext i32 %92 to i64
  %94 = getelementptr inbounds i8*, i8** %15, i64 %93
  %95 = load i8*, i8** %94, align 8
  %96 = getelementptr inbounds i8, i8* %95, i32 1
  store i8* %96, i8** %94, align 8
  br label %113

97:                                               ; preds = %82
  %98 = load i32, i32* %5, align 4
  %99 = sext i32 %98 to i64
  %100 = getelementptr inbounds i8*, i8** %15, i64 %99
  %101 = load i8*, i8** %100, align 8
  %102 = load i8, i8* %101, align 1
  %103 = sext i8 %102 to i32
  %104 = icmp eq i32 %103, 95
  br i1 %104, label %105, label %111

105:                                              ; preds = %97
  %106 = load i32, i32* %5, align 4
  %107 = sext i32 %106 to i64
  %108 = getelementptr inbounds i8*, i8** %15, i64 %107
  %109 = load i8*, i8** %108, align 8
  %110 = getelementptr inbounds i8, i8* %109, i32 1
  store i8* %110, i8** %108, align 8
  br label %112

111:                                              ; preds = %97
  store i32 0, i32* %6, align 4
  br label %117

112:                                              ; preds = %105
  br label %113

113:                                              ; preds = %112, %91
  br label %114

114:                                              ; preds = %113
  %115 = load i32, i32* %7, align 4
  %116 = add nsw i32 %115, 1
  store i32 %116, i32* %7, align 4
  br label %78

117:                                              ; preds = %111, %78
  %118 = load i32, i32* %6, align 4
  %119 = call i32 (i8*, ...) @printf(i8* getelementptr inbounds ([4 x i8], [4 x i8]* @.str.1, i64 0, i64 0), i32 %118)
  br label %120

120:                                              ; preds = %117
  %121 = load i32, i32* %5, align 4
  %122 = add nsw i32 %121, 1
  store i32 %122, i32* %5, align 4
  br label %42

123:                                              ; preds = %42
  %124 = load i8*, i8** %9, align 8
  call void @llvm.stackrestore(i8* %124)
  %125 = load i32, i32* %1, align 4
  ret i32 %125
}

declare dso_local i32 @__isoc99_scanf(i8*, ...) #1

; Function Attrs: nounwind
declare i8* @llvm.stacksave() #2

; Function Attrs: nounwind
declare dso_local noalias i8* @malloc(i64) #3

declare dso_local i32 @gets(...) #1

; Function Attrs: nounwind readonly
declare dso_local i64 @strlen(i8*) #4

; Function Attrs: nounwind readonly
declare dso_local i32 @isalpha(i32) #4

; Function Attrs: nounwind readonly
declare dso_local i32 @isalnum(i32) #4

declare dso_local i32 @printf(i8*, ...) #1

; Function Attrs: nounwind
declare void @llvm.stackrestore(i8*) #2


!llvm.module.flags = !{!0}
!llvm.ident = !{!1}

!0 = !{i32 1, !"wchar_size", i32 4}
!1 = !{!"clang version 10.0.0-4ubuntu1 "}
